target datalayout = "e-m:e-p270:32:32-p271:32:32-p272:64:64-i64:64-i128:128-f80:128-n8:16:32:64-S128"
target triple = "x86_64-pc-linux-gnu"

; Function Attrs: nounwind uwtable
define internal i32 @filter_units_make_type_list(ptr noundef %0, ptr noundef %1, ptr noundef %2) #0 {
  %4 = alloca i32, align 4
  %5 = alloca ptr, align 8
  %6 = alloca ptr, align 8
  %7 = alloca ptr, align 8
  %8 = alloca ptr, align 8
  %9 = alloca i32, align 4
  %10 = alloca i32, align 4
  %11 = alloca i64, align 8
  %12 = alloca i64, align 8
  %13 = alloca i64, align 8
  %14 = alloca ptr, align 8
  %15 = alloca ptr, align 8
  %16 = alloca i32, align 4
  store ptr %0, ptr %5, align 8, !tbaa !61
  store ptr %1, ptr %6, align 8, !tbaa !62
  store ptr %2, ptr %7, align 8, !tbaa !65
  call void @llvm.lifetime.start.p0(i64 8, ptr %8) #4
  store ptr null, ptr %8, align 8, !tbaa !65
  call void @llvm.lifetime.start.p0(i64 4, ptr %9) #4
  call void @llvm.lifetime.start.p0(i64 4, ptr %10) #4
  store i32 1, ptr %9, align 4, !tbaa !30
  br label %17

17:                                               ; preds = %109, %3
  %18 = load i32, ptr %9, align 4, !tbaa !30
  %19 = icmp sle i32 %18, 2
  br i1 %19, label %20, label %112

20:                                               ; preds = %17
  call void @llvm.lifetime.start.p0(i64 8, ptr %11) #4
  call void @llvm.lifetime.start.p0(i64 8, ptr %12) #4
  call void @llvm.lifetime.start.p0(i64 8, ptr %13) #4
  call void @llvm.lifetime.start.p0(i64 8, ptr %14) #4
  call void @llvm.lifetime.start.p0(i64 8, ptr %15) #4
  store i32 0, ptr %10, align 4, !tbaa !30
  %21 = load ptr, ptr %5, align 8, !tbaa !61
  store ptr %21, ptr %14, align 8, !tbaa !61
  br label %22

22:                                               ; preds = %93, %20
  %23 = load ptr, ptr %14, align 8, !tbaa !61
  %24 = load i8, ptr %23, align 1, !tbaa !66
  %25 = icmp ne i8 %24, 0
  br i1 %25, label %26, label %94

26:                                               ; preds = %22
  %27 = load ptr, ptr %14, align 8, !tbaa !61
  %28 = call i64 @strtol(ptr noundef %27, ptr noundef %15, i32 noundef 0) #4
  store i64 %28, ptr %11, align 8, !tbaa !67
  %29 = load ptr, ptr %14, align 8, !tbaa !61
  %30 = load ptr, ptr %15, align 8, !tbaa !61
  %31 = icmp eq ptr %29, %30
  br i1 %31, label %32, label %33

32:                                               ; preds = %26
  store i32 7, ptr %16, align 4
  br label %106

33:                                               ; preds = %26
  %34 = load ptr, ptr %15, align 8, !tbaa !61
  store ptr %34, ptr %14, align 8, !tbaa !61
  %35 = load ptr, ptr %14, align 8, !tbaa !61
  %36 = load i8, ptr %35, align 1, !tbaa !66
  %37 = sext i8 %36 to i32
  %38 = icmp eq i32 %37, 45
  br i1 %38, label %39, label %72

39:                                               ; preds = %33
  %40 = load ptr, ptr %14, align 8, !tbaa !61
  %41 = getelementptr inbounds nuw i8, ptr %40, i32 1
  store ptr %41, ptr %14, align 8, !tbaa !61
  %42 = load i64, ptr %11, align 8, !tbaa !67
  store i64 %42, ptr %12, align 8, !tbaa !67
  %43 = load ptr, ptr %14, align 8, !tbaa !61
  %44 = call i64 @strtol(ptr noundef %43, ptr noundef %15, i32 noundef 0) #4
  store i64 %44, ptr %13, align 8, !tbaa !67
  %45 = load ptr, ptr %14, align 8, !tbaa !61
  %46 = load ptr, ptr %15, align 8, !tbaa !61
  %47 = icmp eq ptr %45, %46
  br i1 %47, label %48, label %49

48:                                               ; preds = %39
  store i32 7, ptr %16, align 4
  br label %106

49:                                               ; preds = %39
  %50 = load i64, ptr %12, align 8, !tbaa !67
  store i64 %50, ptr %11, align 8, !tbaa !67
  br label %51

51:                                               ; preds = %68, %49
  %52 = load i64, ptr %11, align 8, !tbaa !67
  %53 = load i64, ptr %13, align 8, !tbaa !67
  %54 = icmp slt i64 %52, %53
  br i1 %54, label %55, label %71

55:                                               ; preds = %51
  %56 = load i32, ptr %9, align 4, !tbaa !30
  %57 = icmp eq i32 %56, 2
  br i1 %57, label %58, label %65

58:                                               ; preds = %55
  %59 = load i64, ptr %11, align 8, !tbaa !67
  %60 = trunc i64 %59 to i32
  %61 = load ptr, ptr %8, align 8, !tbaa !65
  %62 = load i32, ptr %10, align 4, !tbaa !30
  %63 = sext i32 %62 to i64
  %64 = getelementptr inbounds i32, ptr %61, i64 %63
  store i32 %60, ptr %64, align 4, !tbaa !30
  br label %65

65:                                               ; preds = %58, %55
  %66 = load i32, ptr %10, align 4, !tbaa !30
  %67 = add nsw i32 %66, 1
  store i32 %67, ptr %10, align 4, !tbaa !30
  br label %68

68:                                               ; preds = %65
  %69 = load i64, ptr %11, align 8, !tbaa !67
  %70 = add nsw i64 %69, 1
  store i64 %70, ptr %11, align 8, !tbaa !67
  br label %51, !llvm.loop !68

71:                                               ; preds = %51
  br label %85

72:                                               ; preds = %33
  %73 = load i32, ptr %9, align 4, !tbaa !30
  %74 = icmp eq i32 %73, 2
  br i1 %74, label %75, label %82

75:                                               ; preds = %72
  %76 = load i64, ptr %11, align 8, !tbaa !67
  %77 = trunc i64 %76 to i32
  %78 = load ptr, ptr %8, align 8, !tbaa !65
  %79 = load i32, ptr %10, align 4, !tbaa !30
  %80 = sext i32 %79 to i64
  %81 = getelementptr inbounds i32, ptr %78, i64 %80
  store i32 %77, ptr %81, align 4, !tbaa !30
  br label %82

82:                                               ; preds = %75, %72
  %83 = load i32, ptr %10, align 4, !tbaa !30
  %84 = add nsw i32 %83, 1
  store i32 %84, ptr %10, align 4, !tbaa !30
  br label %85

85:                                               ; preds = %82, %71
  %86 = load ptr, ptr %14, align 8, !tbaa !61
  %87 = load i8, ptr %86, align 1, !tbaa !66
  %88 = sext i8 %87 to i32
  %89 = icmp eq i32 %88, 124
  br i1 %89, label %90, label %93

90:                                               ; preds = %85
  %91 = load ptr, ptr %14, align 8, !tbaa !61
  %92 = getelementptr inbounds nuw i8, ptr %91, i32 1
  store ptr %92, ptr %14, align 8, !tbaa !61
  br label %93

93:                                               ; preds = %90, %85
  br label %22, !llvm.loop !69

94:                                               ; preds = %22
  %95 = load i32, ptr %9, align 4, !tbaa !30
  %96 = icmp eq i32 %95, 1
  br i1 %96, label %97, label %105

97:                                               ; preds = %94
  %98 = load i32, ptr %10, align 4, !tbaa !30
  %99 = sext i32 %98 to i64
  %100 = call ptr @av_malloc_array(i64 noundef %99, i64 noundef 4)
  store ptr %100, ptr %8, align 8, !tbaa !65
  %101 = load ptr, ptr %8, align 8, !tbaa !65
  %102 = icmp ne ptr %101, null
  br i1 %102, label %104, label %103

103:                                              ; preds = %97
  store i32 -12, ptr %4, align 4
  store i32 1, ptr %16, align 4
  br label %106

104:                                              ; preds = %97
  br label %105

105:                                              ; preds = %104, %94
  store i32 0, ptr %16, align 4
  br label %106

106:                                              ; preds = %48, %32, %105, %103
  call void @llvm.lifetime.end.p0(i64 8, ptr %15) #4
  call void @llvm.lifetime.end.p0(i64 8, ptr %14) #4
  call void @llvm.lifetime.end.p0(i64 8, ptr %13) #4
  call void @llvm.lifetime.end.p0(i64 8, ptr %12) #4
  call void @llvm.lifetime.end.p0(i64 8, ptr %11) #4
  %107 = load i32, ptr %16, align 4
  switch i32 %107, label %118 [
    i32 0, label %108
    i32 7, label %117
  ]

108:                                              ; preds = %106
  br label %109

109:                                              ; preds = %108
  %110 = load i32, ptr %9, align 4, !tbaa !30
  %111 = add nsw i32 %110, 1
  store i32 %111, ptr %9, align 4, !tbaa !30
  br label %17, !llvm.loop !70

112:                                              ; preds = %17
  %113 = load ptr, ptr %8, align 8, !tbaa !65
  %114 = load ptr, ptr %6, align 8, !tbaa !62
  store ptr %113, ptr %114, align 8, !tbaa !65
  %115 = load i32, ptr %10, align 4, !tbaa !30
  %116 = load ptr, ptr %7, align 8, !tbaa !65
  store i32 %115, ptr %116, align 4, !tbaa !30
  store i32 0, ptr %4, align 4
  store i32 1, ptr %16, align 4
  br label %118

117:                                              ; preds = %106
  call void @av_freep(ptr noundef %8)
  store i32 -22, ptr %4, align 4
  store i32 1, ptr %16, align 4
  br label %118

118:                                              ; preds = %117, %112, %106
  call void @llvm.lifetime.end.p0(i64 4, ptr %10) #4
  call void @llvm.lifetime.end.p0(i64 4, ptr %9) #4
  call void @llvm.lifetime.end.p0(i64 8, ptr %8) #4
  %119 = load i32, ptr %4, align 4
  ret i32 %119
}